target datalayout = "e-m:e-p270:32:32-p271:32:32-p272:64:64-i64:64-i128:128-f80:128-n8:16:32:64-S128"
target triple = "x86_64-pc-linux-gnu"

%"class.boost::detail::shared_count" = type { ptr }
%"class.std::__cxx11::basic_string" = type { %"struct.std::__cxx11::basic_string<char>::_Alloc_hider", i64, %union.anon }
%"struct.std::__cxx11::basic_string<char>::_Alloc_hider" = type { ptr }
%union.anon = type { i64, [8 x i8] }
%"class.boost::filesystem::path" = type { %"class.std::__cxx11::basic_string" }
%"class.std::basic_ostream.base" = type { ptr }
%"class.std::basic_streambuf" = type { ptr, ptr, ptr, ptr, ptr, ptr, ptr, %"class.std::locale" }
%"class.std::locale" = type { ptr }
%"class.std::basic_ios" = type { %"class.std::ios_base", ptr, i8, i8, ptr, ptr, ptr, ptr }
%"class.std::ios_base" = type { ptr, i64, i64, i32, i32, i32, ptr, %"struct.std::ios_base::_Words", [8 x %"struct.std::ios_base::_Words"], i32, ptr, %"class.std::locale" }
%"struct.std::ios_base::_Words" = type { ptr, i64 }
%"class.boost::log::v2_mt_posix::aux::light_function" = type { ptr }
%union.pthread_mutex_t = type { %struct.__pthread_mutex_s }
%struct.__pthread_mutex_s = type { i32, i32, i32, i32, i32, i16, i16, %struct.__pthread_internal_list }
%struct.__pthread_internal_list = type { ptr, ptr }
%"class.boost::shared_ptr.131" = type { ptr, %"class.boost::detail::shared_count" }
%"class.boost::log::v2_mt_posix::aux::light_function.154" = type { ptr }
%"class.boost::log::v2_mt_posix::sinks::text_file_backend" = type { ptr }
%"struct.boost::log::v2_mt_posix::sinks::text_file_backend::implementation" = type { %"class.boost::filesystem::path", %"class.boost::filesystem::path", %"class.boost::log::v2_mt_posix::aux::light_function", %"class.boost::filesystem::path", %"class.boost::filesystem::path", %"class.boost::log::v2_mt_posix::aux::light_function", i32, i32, %"class.boost::filesystem::path", %"class.boost::filesystem::basic_ofstream", i64, %"class.boost::shared_ptr.131", %"class.boost::log::v2_mt_posix::aux::light_function.153", %"class.boost::log::v2_mt_posix::aux::light_function.153", i64, %"class.boost::log::v2_mt_posix::aux::light_function.154", i32, i8, i8, i8, i8 }
%"class.boost::filesystem::basic_ofstream" = type { %"class.std::basic_ofstream.base", %"class.std::basic_ios" }
%"class.std::basic_ofstream.base" = type { %"class.std::basic_ostream.base", %"class.std::basic_filebuf" }
%"class.std::basic_filebuf" = type { %"class.std::basic_streambuf", %union.pthread_mutex_t, %"class.std::__basic_file", i32, %struct.__mbstate_t, %struct.__mbstate_t, %struct.__mbstate_t, ptr, i64, i8, i8, i8, i8, ptr, ptr, i8, ptr, ptr, i64, ptr, ptr }
%"class.std::__basic_file" = type <{ ptr, i8, [7 x i8] }>
%struct.__mbstate_t = type { i32, %union.anon.152 }
%union.anon.152 = type { i32 }
%"class.boost::log::v2_mt_posix::aux::light_function.153" = type { ptr }
%"class.std::basic_ofstream" = type { %"class.std::basic_ostream.base", %"class.std::basic_filebuf", %"class.std::basic_ios" }

; Function Attrs: mustprogress nounwind uwtable
define available_externally noundef zeroext i1 @_ZNKSt13basic_filebufIcSt11char_traitsIcEE7is_openEv(ptr noundef nonnull align 8 dereferenceable(240) %0) #3 align 2 {
  %2 = alloca ptr, align 8
  store ptr %0, ptr %2, align 8, !tbaa !3
  %3 = load ptr, ptr %2, align 8
  %4 = getelementptr inbounds nuw %"class.std::basic_filebuf", ptr %3, i32 0, i32 2
  %5 = call noundef zeroext i1 @_ZNKSt12__basic_fileIcE7is_openEv(ptr noundef nonnull align 8 dereferenceable(9) %4) #28
  ret i1 %5
}

; Function Attrs: mustprogress nounwind uwtable
define available_externally noundef zeroext i1 @_ZNSt14basic_ofstreamIcSt11char_traitsIcEE7is_openEv(ptr noundef nonnull align 8 dereferenceable(248) %0) #3 align 2 {
  %2 = alloca ptr, align 8
  store ptr %0, ptr %2, align 8, !tbaa !3
  %3 = load ptr, ptr %2, align 8
  %4 = getelementptr inbounds nuw %"class.std::basic_ofstream", ptr %3, i32 0, i32 1
  %5 = call noundef zeroext i1 @_ZNKSt13basic_filebufIcSt11char_traitsIcEE7is_openEv(ptr noundef nonnull align 8 dereferenceable(240) %4) #9
  ret i1 %5
}

; Function Attrs: mustprogress nounwind uwtable
define void @_ZN5boost3log11v2_mt_posix5sinks17text_file_backendD2Ev(ptr noundef nonnull align 8 dereferenceable(8) %0) unnamed_addr #3 align 2 personality ptr @__gxx_personality_v0 {
  %2 = alloca ptr, align 8
  %3 = alloca ptr, align 8
  %4 = alloca i32, align 4
  store ptr %0, ptr %2, align 8, !tbaa !3
  %5 = load ptr, ptr %2, align 8
  %6 = getelementptr inbounds nuw %"class.boost::log::v2_mt_posix::sinks::text_file_backend", ptr %5, i32 0, i32 0
  %7 = load ptr, ptr %6, align 8, !tbaa !142
  %8 = getelementptr inbounds nuw %"struct.boost::log::v2_mt_posix::sinks::text_file_backend::implementation", ptr %7, i32 0, i32 18
  %9 = load i8, ptr %8, align 1, !tbaa !144, !range !20, !noundef !21
  %10 = trunc i8 %9 to i1
  br i1 %10, label %11, label %39

11:                                               ; preds = %1
  %12 = getelementptr inbounds nuw %"class.boost::log::v2_mt_posix::sinks::text_file_backend", ptr %5, i32 0, i32 0
  %13 = load ptr, ptr %12, align 8, !tbaa !142
  %14 = getelementptr inbounds nuw %"struct.boost::log::v2_mt_posix::sinks::text_file_backend::implementation", ptr %13, i32 0, i32 9
  %15 = invoke noundef zeroext i1 @_ZNSt14basic_ofstreamIcSt11char_traitsIcEE7is_openEv(ptr noundef nonnull align 8 dereferenceable(248) %14)
          to label %16 unwind label %25

16:                                               ; preds = %11
  br i1 %15, label %17, label %39

17:                                               ; preds = %16
  %18 = getelementptr inbounds nuw %"class.boost::log::v2_mt_posix::sinks::text_file_backend", ptr %5, i32 0, i32 0
  %19 = load ptr, ptr %18, align 8, !tbaa !142
  %20 = getelementptr inbounds nuw %"struct.boost::log::v2_mt_posix::sinks::text_file_backend::implementation", ptr %19, i32 0, i32 10
  %21 = load i64, ptr %20, align 8, !tbaa !154
  %22 = icmp ugt i64 %21, 0
  br i1 %22, label %23, label %39

23:                                               ; preds = %17
  invoke void @_ZN5boost3log11v2_mt_posix5sinks17text_file_backend11rotate_fileEv(ptr noundef nonnull align 8 dereferenceable(8) %5)
          to label %24 unwind label %25

24:                                               ; preds = %23
  br label %39

25:                                               ; preds = %23, %11
  %26 = landingpad { ptr, i32 }
          catch ptr null
  %27 = extractvalue { ptr, i32 } %26, 0
  store ptr %27, ptr %3, align 8
  %28 = extractvalue { ptr, i32 } %26, 1
  store i32 %28, ptr %4, align 4
  br label %29

29:                                               ; preds = %25
  %30 = load ptr, ptr %3, align 8
  %31 = call ptr @__cxa_begin_catch(ptr %30) #9
  invoke void @__cxa_end_catch()
          to label %32 unwind label %40

32:                                               ; preds = %29
  br label %33

33:                                               ; preds = %32, %39
  %34 = getelementptr inbounds nuw %"class.boost::log::v2_mt_posix::sinks::text_file_backend", ptr %5, i32 0, i32 0
  %35 = load ptr, ptr %34, align 8, !tbaa !142
  %36 = icmp eq ptr %35, null
  br i1 %36, label %38, label %37

37:                                               ; preds = %33
  call void @_ZN5boost3log11v2_mt_posix5sinks17text_file_backend14implementationD2Ev(ptr noundef nonnull align 8 dereferenceable(760) %35) #9
  call void @_ZdlPvm(ptr noundef %35, i64 noundef 760) #29
  br label %38

38:                                               ; preds = %37, %33
  ret void

39:                                               ; preds = %24, %17, %16, %1
  br label %33

40:                                               ; preds = %29
  %41 = landingpad { ptr, i32 }
          catch ptr null
  %42 = extractvalue { ptr, i32 } %41, 0
  call void @__clang_call_terminate(ptr %42) #26
  unreachable
}