; Function Attrs: mustprogress nounwind uwtable
define void @_ZN5boost3log11v2_mt_posix5sinks17text_file_backendD2Ev(ptr nocapture noundef nonnull readonly align 8 dereferenceable(8) %0) unnamed_addr #11 align 2 personality ptr @__gxx_personality_v0 {
  %2 = load ptr, ptr %0, align 8, !tbaa !225
  %3 = getelementptr inbounds nuw i8, ptr %2, i64 757
  %4 = load i8, ptr %3, align 1, !tbaa !227, !range !57, !noundef !58
  %5 = trunc nuw i8 %4 to i1
  br i1 %5, label %6, label %.thread

6:                                                ; preds = %1
  %7 = getelementptr inbounds nuw i8, ptr %2, i64 296
  %8 = tail call noundef zeroext i1 @_ZNKSt12__basic_fileIcE7is_openEv(ptr noundef nonnull align 8 dereferenceable(9) %7) #34
  br i1 %8, label %9, label %17

9:                                                ; preds = %6
  %10 = getelementptr inbounds nuw i8, ptr %2, i64 696
  %11 = load i64, ptr %10, align 8, !tbaa !236
  %.not = icmp eq i64 %11, 0
  br i1 %.not, label %17, label %12

12:                                               ; preds = %9
  invoke void @_ZN5boost3log11v2_mt_posix5sinks17text_file_backend11rotate_fileEv(ptr noundef nonnull align 8 dereferenceable(8) %0)
          to label %17 unwind label %13

13:                                               ; preds = %12
  %14 = landingpad { ptr, i32 }
          catch ptr null
  %15 = extractvalue { ptr, i32 } %14, 0
  %16 = tail call ptr @__cxa_begin_catch(ptr %15) #29
  invoke void @__cxa_end_catch()
          to label %17 unwind label %21

17:                                               ; preds = %6, %9, %12, %13
  %.pr = load ptr, ptr %0, align 8, !tbaa !225
  %18 = icmp eq ptr %.pr, null
  br i1 %18, label %20, label %.thread

.thread:                                          ; preds = %1, %17
  %19 = phi ptr [ %.pr, %17 ], [ %2, %1 ]
  tail call void @_ZN5boost3log11v2_mt_posix5sinks17text_file_backend14implementationD2Ev(ptr noundef nonnull align 8 dereferenceable(760) %19) #29
  tail call void @_ZdlPvm(ptr noundef nonnull %19, i64 noundef 760) #32
  br label %20

20:                                               ; preds = %.thread, %17
  ret void

21:                                               ; preds = %13
  %22 = landingpad { ptr, i32 }
          catch ptr null
  %23 = extractvalue { ptr, i32 } %22, 0
  tail call void @__clang_call_terminate(ptr %23) #31
  unreachable
}